; Function Attrs: nounwind uwtable
define hidden void @EVP_CIPHER_CTX_free(ptr noundef %0) local_unnamed_addr #0 {
  %.not = icmp eq ptr %0, null
  br i1 %.not, label %17, label %2

2:                                                ; preds = %1
  %3 = load ptr, ptr %0, align 8, !tbaa !6
  %.not.i = icmp eq ptr %3, null
  br i1 %.not.i, label %EVP_CIPHER_CTX_cleanup.exit, label %4

4:                                                ; preds = %2
  %5 = getelementptr inbounds nuw i8, ptr %3, i64 48
  %6 = load ptr, ptr %5, align 8, !tbaa !13
  %.not9.i = icmp eq ptr %6, null
  br i1 %.not9.i, label %8, label %7

7:                                                ; preds = %4
  tail call void %6(ptr noundef nonnull %0) #14
  %.pre.i = load ptr, ptr %0, align 8, !tbaa !6
  br label %8

8:                                                ; preds = %7, %4
  %9 = phi ptr [ %.pre.i, %7 ], [ %3, %4 ]
  %10 = getelementptr inbounds nuw i8, ptr %0, i64 16
  %11 = load ptr, ptr %10, align 8, !tbaa !15
  %12 = getelementptr inbounds nuw i8, ptr %9, i64 16
  %13 = load i32, ptr %12, align 8, !tbaa !16
  %14 = zext i32 %13 to i64
  tail call void @OPENSSL_cleanse(ptr noundef %11, i64 noundef %14) #14
  br label %EVP_CIPHER_CTX_cleanup.exit

EVP_CIPHER_CTX_cleanup.exit:                      ; preds = %2, %8
  %15 = getelementptr inbounds nuw i8, ptr %0, i64 16
  %16 = load ptr, ptr %15, align 8, !tbaa !15
  tail call void @free(ptr noundef %16) #14
  tail call void @free(ptr noundef nonnull %0) #14
  br label %17

17:                                               ; preds = %EVP_CIPHER_CTX_cleanup.exit, %1
  ret void
}